target datalayout = "e-m:e-p270:32:32-p271:32:32-p272:64:64-i64:64-i128:128-f80:128-n8:16:32:64-S128"
target triple = "x86_64-pc-linux-gnu"

%struct.ggml_backend = type { ptr, %struct.ggml_backend_i, ptr, ptr }
%struct.ggml_backend_i = type { ptr, ptr, ptr, ptr, ptr, ptr, ptr, ptr, ptr, ptr, ptr, ptr, ptr }
%struct.ggml_hash_set = type { i64, ptr, ptr }
%struct.ggml_backend_sched = type { i8, i8, i32, [16 x ptr], [16 x ptr], ptr, %struct.ggml_hash_set, ptr, ptr, ptr, ptr, ptr, ptr, %struct.ggml_cgraph, ptr, i32, i32, i32, i32, [16 x [4 x ptr]], [10 x ptr], i32, ptr, ptr, ptr, ptr, i64, i32 }
%struct.ggml_cgraph = type { i32, i32, i32, ptr, ptr, ptr, ptr, %struct.ggml_hash_set, i32 }

@.str = private unnamed_addr constant [123 x i8] c"generated/home/dtcxzyw/WorkSpace/Projects/compilers/llvm-opt-benchmark/bench/llama.cpp/llama.cpp/ggml/src/ggml-backend.cpp\00", align 1
@.str.1 = private unnamed_addr constant [23 x i8] c"GGML_ASSERT(%s) failed\00", align 1
@.str.25 = private unnamed_addr constant [61 x i8] c"(int)sched->hash_set.size >= graph->n_nodes + graph->n_leafs\00", align 1
@.str.56 = private unnamed_addr constant [30 x i8] c"%s: failed to allocate graph\0A\00", align 1
@__func__._ZL31ggml_backend_sched_alloc_splitsP18ggml_backend_sched = private unnamed_addr constant [32 x i8] c"ggml_backend_sched_alloc_splits\00", align 1

; Function Attrs: mustprogress uwtable
define void @ggml_backend_synchronize(ptr noundef %0) #0 {
  %2 = alloca ptr, align 8
  store ptr %0, ptr %2, align 8, !tbaa !56
  %3 = load ptr, ptr %2, align 8, !tbaa !56
  %4 = getelementptr inbounds nuw %struct.ggml_backend, ptr %3, i32 0, i32 1
  %5 = getelementptr inbounds nuw %struct.ggml_backend_i, ptr %4, i32 0, i32 5
  %6 = load ptr, ptr %5, align 8, !tbaa !76
  %7 = icmp eq ptr %6, null
  br i1 %7, label %8, label %9

8:                                                ; preds = %1
  br label %15

9:                                                ; preds = %1
  %10 = load ptr, ptr %2, align 8, !tbaa !56
  %11 = getelementptr inbounds nuw %struct.ggml_backend, ptr %10, i32 0, i32 1
  %12 = getelementptr inbounds nuw %struct.ggml_backend_i, ptr %11, i32 0, i32 5
  %13 = load ptr, ptr %12, align 8, !tbaa !76
  %14 = load ptr, ptr %2, align 8, !tbaa !56
  call void %13(ptr noundef %14)
  br label %15

15:                                               ; preds = %9, %8
  ret void
}

; Function Attrs: mustprogress uwtable
define void @ggml_backend_sched_synchronize(ptr noundef %0) #0 {
  %2 = alloca ptr, align 8
  %3 = alloca i32, align 4
  store ptr %0, ptr %2, align 8, !tbaa !131
  call void @llvm.lifetime.start.p0(i64 4, ptr %3) #15
  store i32 0, ptr %3, align 4, !tbaa !89
  br label %4

4:                                                ; preds = %18, %1
  %5 = load i32, ptr %3, align 4, !tbaa !89
  %6 = load ptr, ptr %2, align 8, !tbaa !131
  %7 = getelementptr inbounds nuw %struct.ggml_backend_sched, ptr %6, i32 0, i32 2
  %8 = load i32, ptr %7, align 4, !tbaa !143
  %9 = icmp slt i32 %5, %8
  br i1 %9, label %11, label %10

10:                                               ; preds = %4
  call void @llvm.lifetime.end.p0(i64 4, ptr %3) #15
  br label %21

11:                                               ; preds = %4
  %12 = load ptr, ptr %2, align 8, !tbaa !131
  %13 = getelementptr inbounds nuw %struct.ggml_backend_sched, ptr %12, i32 0, i32 3
  %14 = load i32, ptr %3, align 4, !tbaa !89
  %15 = sext i32 %14 to i64
  %16 = getelementptr inbounds [16 x ptr], ptr %13, i64 0, i64 %15
  %17 = load ptr, ptr %16, align 8, !tbaa !56
  call void @ggml_backend_synchronize(ptr noundef %17)
  br label %18

18:                                               ; preds = %11
  %19 = load i32, ptr %3, align 4, !tbaa !89
  %20 = add nsw i32 %19, 1
  store i32 %20, ptr %3, align 4, !tbaa !89
  br label %4, !llvm.loop !224

21:                                               ; preds = %10
  ret void
}

; Function Attrs: mustprogress uwtable
define internal noundef zeroext i1 @_ZL31ggml_backend_sched_alloc_splitsP18ggml_backend_sched(ptr noundef %0) #0 {
  %2 = alloca i1, align 1
  %3 = alloca ptr, align 8
  %4 = alloca i8, align 1
  %5 = alloca i32, align 4
  %6 = alloca i32, align 4
  %7 = alloca i32, align 4
  store ptr %0, ptr %3, align 8, !tbaa !131
  call void @llvm.lifetime.start.p0(i64 1, ptr %4) #15
  store i8 0, ptr %4, align 1, !tbaa !129
  call void @llvm.lifetime.start.p0(i64 4, ptr %5) #15
  store i32 0, ptr %5, align 4, !tbaa !89
  br label %8

8:                                                ; preds = %60, %1
  %9 = load i32, ptr %5, align 4, !tbaa !89
  %10 = load ptr, ptr %3, align 8, !tbaa !131
  %11 = getelementptr inbounds nuw %struct.ggml_backend_sched, ptr %10, i32 0, i32 13
  %12 = getelementptr inbounds nuw %struct.ggml_cgraph, ptr %11, i32 0, i32 1
  %13 = load i32, ptr %12, align 4, !tbaa !211
  %14 = icmp slt i32 %9, %13
  br i1 %14, label %16, label %15

15:                                               ; preds = %8
  store i32 2, ptr %6, align 4
  br label %63

16:                                               ; preds = %8
  %17 = load ptr, ptr %3, align 8, !tbaa !131
  %18 = getelementptr inbounds nuw %struct.ggml_backend_sched, ptr %17, i32 0, i32 9
  %19 = load ptr, ptr %18, align 8, !tbaa !153
  %20 = load i32, ptr %5, align 4, !tbaa !89
  %21 = sext i32 %20 to i64
  %22 = getelementptr inbounds i32, ptr %19, i64 %21
  %23 = load i32, ptr %22, align 4, !tbaa !89
  %24 = load ptr, ptr %3, align 8, !tbaa !131
  %25 = getelementptr inbounds nuw %struct.ggml_backend_sched, ptr %24, i32 0, i32 11
  %26 = load ptr, ptr %25, align 8, !tbaa !155
  %27 = load i32, ptr %5, align 4, !tbaa !89
  %28 = sext i32 %27 to i64
  %29 = getelementptr inbounds i32, ptr %26, i64 %28
  %30 = load i32, ptr %29, align 4, !tbaa !89
  %31 = icmp ne i32 %23, %30
  br i1 %31, label %32, label %59

32:                                               ; preds = %16
  %33 = load ptr, ptr %3, align 8, !tbaa !131
  %34 = getelementptr inbounds nuw %struct.ggml_backend_sched, ptr %33, i32 0, i32 4
  %35 = load ptr, ptr %3, align 8, !tbaa !131
  %36 = getelementptr inbounds nuw %struct.ggml_backend_sched, ptr %35, i32 0, i32 9
  %37 = load ptr, ptr %36, align 8, !tbaa !153
  %38 = load i32, ptr %5, align 4, !tbaa !89
  %39 = sext i32 %38 to i64
  %40 = getelementptr inbounds i32, ptr %37, i64 %39
  %41 = load i32, ptr %40, align 4, !tbaa !89
  %42 = sext i32 %41 to i64
  %43 = getelementptr inbounds [16 x ptr], ptr %34, i64 0, i64 %42
  %44 = load ptr, ptr %43, align 8, !tbaa !3
  %45 = load ptr, ptr %3, align 8, !tbaa !131
  %46 = getelementptr inbounds nuw %struct.ggml_backend_sched, ptr %45, i32 0, i32 4
  %47 = load ptr, ptr %3, align 8, !tbaa !131
  %48 = getelementptr inbounds nuw %struct.ggml_backend_sched, ptr %47, i32 0, i32 11
  %49 = load ptr, ptr %48, align 8, !tbaa !155
  %50 = load i32, ptr %5, align 4, !tbaa !89
  %51 = sext i32 %50 to i64
  %52 = getelementptr inbounds i32, ptr %49, i64 %51
  %53 = load i32, ptr %52, align 4, !tbaa !89
  %54 = sext i32 %53 to i64
  %55 = getelementptr inbounds [16 x ptr], ptr %46, i64 0, i64 %54
  %56 = load ptr, ptr %55, align 8, !tbaa !3
  %57 = icmp ne ptr %44, %56
  br i1 %57, label %58, label %59

58:                                               ; preds = %32
  store i8 1, ptr %4, align 1, !tbaa !129
  store i32 2, ptr %6, align 4
  br label %63

59:                                               ; preds = %32, %16
  br label %60

60:                                               ; preds = %59
  %61 = load i32, ptr %5, align 4, !tbaa !89
  %62 = add nsw i32 %61, 1
  store i32 %62, ptr %5, align 4, !tbaa !89
  br label %8, !llvm.loop !225

63:                                               ; preds = %58, %15
  call void @llvm.lifetime.end.p0(i64 4, ptr %5) #15
  br label %64

64:                                               ; preds = %63
  %65 = load i8, ptr %4, align 1, !tbaa !129, !range !144, !noundef !145
  %66 = trunc i8 %65 to i1
  br i1 %66, label %125, label %67

67:                                               ; preds = %64
  call void @llvm.lifetime.start.p0(i64 4, ptr %7) #15
  store i32 0, ptr %7, align 4, !tbaa !89
  br label %68

68:                                               ; preds = %120, %67
  %69 = load i32, ptr %7, align 4, !tbaa !89
  %70 = load ptr, ptr %3, align 8, !tbaa !131
  %71 = getelementptr inbounds nuw %struct.ggml_backend_sched, ptr %70, i32 0, i32 13
  %72 = getelementptr inbounds nuw %struct.ggml_cgraph, ptr %71, i32 0, i32 2
  %73 = load i32, ptr %72, align 8, !tbaa !212
  %74 = icmp slt i32 %69, %73
  br i1 %74, label %76, label %75

75:                                               ; preds = %68
  store i32 5, ptr %6, align 4
  br label %123

76:                                               ; preds = %68
  %77 = load ptr, ptr %3, align 8, !tbaa !131
  %78 = getelementptr inbounds nuw %struct.ggml_backend_sched, ptr %77, i32 0, i32 10
  %79 = load ptr, ptr %78, align 8, !tbaa !154
  %80 = load i32, ptr %7, align 4, !tbaa !89
  %81 = sext i32 %80 to i64
  %82 = getelementptr inbounds i32, ptr %79, i64 %81
  %83 = load i32, ptr %82, align 4, !tbaa !89
  %84 = load ptr, ptr %3, align 8, !tbaa !131
  %85 = getelementptr inbounds nuw %struct.ggml_backend_sched, ptr %84, i32 0, i32 12
  %86 = load ptr, ptr %85, align 8, !tbaa !156
  %87 = load i32, ptr %7, align 4, !tbaa !89
  %88 = sext i32 %87 to i64
  %89 = getelementptr inbounds i32, ptr %86, i64 %88
  %90 = load i32, ptr %89, align 4, !tbaa !89
  %91 = icmp ne i32 %83, %90
  br i1 %91, label %92, label %119

92:                                               ; preds = %76
  %93 = load ptr, ptr %3, align 8, !tbaa !131
  %94 = getelementptr inbounds nuw %struct.ggml_backend_sched, ptr %93, i32 0, i32 4
  %95 = load ptr, ptr %3, align 8, !tbaa !131
  %96 = getelementptr inbounds nuw %struct.ggml_backend_sched, ptr %95, i32 0, i32 10
  %97 = load ptr, ptr %96, align 8, !tbaa !154
  %98 = load i32, ptr %7, align 4, !tbaa !89
  %99 = sext i32 %98 to i64
  %100 = getelementptr inbounds i32, ptr %97, i64 %99
  %101 = load i32, ptr %100, align 4, !tbaa !89
  %102 = sext i32 %101 to i64
  %103 = getelementptr inbounds [16 x ptr], ptr %94, i64 0, i64 %102
  %104 = load ptr, ptr %103, align 8, !tbaa !3
  %105 = load ptr, ptr %3, align 8, !tbaa !131
  %106 = getelementptr inbounds nuw %struct.ggml_backend_sched, ptr %105, i32 0, i32 4
  %107 = load ptr, ptr %3, align 8, !tbaa !131
  %108 = getelementptr inbounds nuw %struct.ggml_backend_sched, ptr %107, i32 0, i32 12
  %109 = load ptr, ptr %108, align 8, !tbaa !156
  %110 = load i32, ptr %7, align 4, !tbaa !89
  %111 = sext i32 %110 to i64
  %112 = getelementptr inbounds i32, ptr %109, i64 %111
  %113 = load i32, ptr %112, align 4, !tbaa !89
  %114 = sext i32 %113 to i64
  %115 = getelementptr inbounds [16 x ptr], ptr %106, i64 0, i64 %114
  %116 = load ptr, ptr %115, align 8, !tbaa !3
  %117 = icmp ne ptr %104, %116
  br i1 %117, label %118, label %119

118:                                              ; preds = %92
  store i8 1, ptr %4, align 1, !tbaa !129
  store i32 5, ptr %6, align 4
  br label %123

119:                                              ; preds = %92, %76
  br label %120

120:                                              ; preds = %119
  %121 = load i32, ptr %7, align 4, !tbaa !89
  %122 = add nsw i32 %121, 1
  store i32 %122, ptr %7, align 4, !tbaa !89
  br label %68, !llvm.loop !226

123:                                              ; preds = %118, %75
  call void @llvm.lifetime.end.p0(i64 4, ptr %7) #15
  br label %124

124:                                              ; preds = %123
  br label %125

125:                                              ; preds = %124, %64
  %126 = load i8, ptr %4, align 1, !tbaa !129, !range !144, !noundef !145
  %127 = trunc i8 %126 to i1
  br i1 %127, label %135, label %128

128:                                              ; preds = %125
  %129 = load ptr, ptr %3, align 8, !tbaa !131
  %130 = getelementptr inbounds nuw %struct.ggml_backend_sched, ptr %129, i32 0, i32 5
  %131 = load ptr, ptr %130, align 8, !tbaa !163
  %132 = load ptr, ptr %3, align 8, !tbaa !131
  %133 = getelementptr inbounds nuw %struct.ggml_backend_sched, ptr %132, i32 0, i32 13
  %134 = call zeroext i1 @ggml_gallocr_alloc_graph(ptr noundef %131, ptr noundef %133)
  br i1 %134, label %157, label %135

135:                                              ; preds = %128, %125
  %136 = load ptr, ptr %3, align 8, !tbaa !131
  call void @ggml_backend_sched_synchronize(ptr noundef %136)
  %137 = load ptr, ptr %3, align 8, !tbaa !131
  %138 = getelementptr inbounds nuw %struct.ggml_backend_sched, ptr %137, i32 0, i32 5
  %139 = load ptr, ptr %138, align 8, !tbaa !163
  %140 = load ptr, ptr %3, align 8, !tbaa !131
  %141 = getelementptr inbounds nuw %struct.ggml_backend_sched, ptr %140, i32 0, i32 13
  %142 = load ptr, ptr %3, align 8, !tbaa !131
  %143 = getelementptr inbounds nuw %struct.ggml_backend_sched, ptr %142, i32 0, i32 9
  %144 = load ptr, ptr %143, align 8, !tbaa !153
  %145 = load ptr, ptr %3, align 8, !tbaa !131
  %146 = getelementptr inbounds nuw %struct.ggml_backend_sched, ptr %145, i32 0, i32 10
  %147 = load ptr, ptr %146, align 8, !tbaa !154
  %148 = call zeroext i1 @ggml_gallocr_reserve_n(ptr noundef %139, ptr noundef %141, ptr noundef %144, ptr noundef %147)
  %149 = load ptr, ptr %3, align 8, !tbaa !131
  %150 = getelementptr inbounds nuw %struct.ggml_backend_sched, ptr %149, i32 0, i32 5
  %151 = load ptr, ptr %150, align 8, !tbaa !163
  %152 = load ptr, ptr %3, align 8, !tbaa !131
  %153 = getelementptr inbounds nuw %struct.ggml_backend_sched, ptr %152, i32 0, i32 13
  %154 = call zeroext i1 @ggml_gallocr_alloc_graph(ptr noundef %151, ptr noundef %153)
  br i1 %154, label %156, label %155

155:                                              ; preds = %135
  call void (i32, ptr, ...) @ggml_log_internal(i32 noundef 4, ptr noundef @.str.56, ptr noundef @__func__._ZL31ggml_backend_sched_alloc_splitsP18ggml_backend_sched)
  store i1 false, ptr %2, align 1
  store i32 1, ptr %6, align 4
  br label %158

156:                                              ; preds = %135
  br label %157

157:                                              ; preds = %156, %128
  store i1 true, ptr %2, align 1
  store i32 1, ptr %6, align 4
  br label %158

158:                                              ; preds = %157, %155
  call void @llvm.lifetime.end.p0(i64 1, ptr %4) #15
  %159 = load i1, ptr %2, align 1
  ret i1 %159
}

; Function Attrs: mustprogress uwtable
define zeroext i1 @ggml_backend_sched_alloc_graph(ptr noundef %0, ptr noundef %1) #0 {
  %3 = alloca i1, align 1
  %4 = alloca ptr, align 8
  %5 = alloca ptr, align 8
  store ptr %0, ptr %4, align 8, !tbaa !131
  store ptr %1, ptr %5, align 8, !tbaa !77
  %6 = load ptr, ptr %4, align 8, !tbaa !131
  %7 = getelementptr inbounds nuw %struct.ggml_backend_sched, ptr %6, i32 0, i32 6
  %8 = getelementptr inbounds nuw %struct.ggml_hash_set, ptr %7, i32 0, i32 0
  %9 = load i64, ptr %8, align 8, !tbaa !150
  %10 = trunc i64 %9 to i32
  %11 = load ptr, ptr %5, align 8, !tbaa !77
  %12 = getelementptr inbounds nuw %struct.ggml_cgraph, ptr %11, i32 0, i32 1
  %13 = load i32, ptr %12, align 4, !tbaa !171
  %14 = load ptr, ptr %5, align 8, !tbaa !77
  %15 = getelementptr inbounds nuw %struct.ggml_cgraph, ptr %14, i32 0, i32 2
  %16 = load i32, ptr %15, align 8, !tbaa !172
  %17 = add nsw i32 %13, %16
  %18 = icmp sge i32 %10, %17
  br i1 %18, label %20, label %19

19:                                               ; preds = %2
  call void (ptr, i32, ptr, ...) @ggml_abort(ptr noundef @.str, i32 noundef 1557, ptr noundef @.str.1, ptr noundef @.str.25) #18
  unreachable

20:                                               ; preds = %2
  %21 = load ptr, ptr %4, align 8, !tbaa !131
  %22 = load ptr, ptr %5, align 8, !tbaa !77
  call void @_ZL30ggml_backend_sched_split_graphP18ggml_backend_schedP11ggml_cgraph(ptr noundef %21, ptr noundef %22)
  %23 = load ptr, ptr %4, align 8, !tbaa !131
  %24 = call noundef zeroext i1 @_ZL31ggml_backend_sched_alloc_splitsP18ggml_backend_sched(ptr noundef %23)
  br i1 %24, label %26, label %25

25:                                               ; preds = %20
  store i1 false, ptr %3, align 1
  br label %29

26:                                               ; preds = %20
  %27 = load ptr, ptr %4, align 8, !tbaa !131
  %28 = getelementptr inbounds nuw %struct.ggml_backend_sched, ptr %27, i32 0, i32 1
  store i8 1, ptr %28, align 1, !tbaa !165
  store i1 true, ptr %3, align 1
  br label %29

29:                                               ; preds = %26, %25
  %30 = load i1, ptr %3, align 1
  ret i1 %30
}