; Function Attrs: mustprogress uwtable
define noundef zeroext i1 @ggml_backend_sched_alloc_graph(ptr noundef %0, ptr noundef %1) local_unnamed_addr #0 {
  %3 = getelementptr inbounds nuw i8, ptr %0, i64 272
  %4 = load i64, ptr %3, align 8, !tbaa !120
  %5 = trunc i64 %4 to i32
  %6 = getelementptr inbounds nuw i8, ptr %1, i64 4
  %7 = load i32, ptr %6, align 4, !tbaa !147
  %8 = getelementptr inbounds nuw i8, ptr %1, i64 8
  %9 = load i32, ptr %8, align 8, !tbaa !148
  %10 = add nsw i32 %9, %7
  %.not = icmp sgt i32 %10, %5
  br i1 %.not, label %11, label %12

11:                                               ; preds = %2
  tail call void (ptr, i32, ptr, ...) @ggml_abort(ptr noundef nonnull @.str, i32 noundef 1557, ptr noundef nonnull @.str.1, ptr noundef nonnull @.str.25) #24
  unreachable

12:                                               ; preds = %2
  tail call fastcc void @_ZL30ggml_backend_sched_split_graphP18ggml_backend_schedP11ggml_cgraph(ptr noundef nonnull %0, ptr noundef nonnull %1)
  %13 = getelementptr inbounds nuw i8, ptr %0, i64 348
  %14 = load i32, ptr %13, align 4, !tbaa !193
  %15 = icmp sgt i32 %14, 0
  br i1 %15, label %.lr.ph.i, label %.preheader.i

.lr.ph.i:                                         ; preds = %12
  %16 = getelementptr inbounds nuw i8, ptr %0, i64 312
  %17 = load ptr, ptr %16, align 8, !tbaa !123
  %18 = getelementptr inbounds nuw i8, ptr %0, i64 328
  %19 = load ptr, ptr %18, align 8, !tbaa !125
  %20 = getelementptr inbounds nuw i8, ptr %0, i64 136
  %wide.trip.count.i = zext nneg i32 %14 to i64
  br label %30

.preheader.i:                                     ; preds = %42, %12
  %21 = getelementptr inbounds nuw i8, ptr %0, i64 344
  %22 = getelementptr inbounds nuw i8, ptr %0, i64 352
  %23 = load i32, ptr %22, align 8, !tbaa !194
  %24 = icmp sgt i32 %23, 0
  br i1 %24, label %.lr.ph54.i, label %._crit_edge.i

.lr.ph54.i:                                       ; preds = %.preheader.i
  %25 = getelementptr inbounds nuw i8, ptr %0, i64 320
  %26 = load ptr, ptr %25, align 8, !tbaa !124
  %27 = getelementptr inbounds nuw i8, ptr %0, i64 336
  %28 = load ptr, ptr %27, align 8, !tbaa !126
  %29 = getelementptr inbounds nuw i8, ptr %0, i64 136
  %wide.trip.count59.i = zext nneg i32 %23 to i64
  br label %43

30:                                               ; preds = %42, %.lr.ph.i
  %indvars.iv.i = phi i64 [ 0, %.lr.ph.i ], [ %indvars.iv.next.i, %42 ]
  %31 = getelementptr inbounds nuw i32, ptr %17, i64 %indvars.iv.i
  %32 = load i32, ptr %31, align 4, !tbaa !157
  %33 = getelementptr inbounds nuw i32, ptr %19, i64 %indvars.iv.i
  %34 = load i32, ptr %33, align 4, !tbaa !157
  %.not.i = icmp eq i32 %32, %34
  br i1 %.not.i, label %42, label %35

35:                                               ; preds = %30
  %36 = sext i32 %32 to i64
  %37 = getelementptr inbounds [16 x ptr], ptr %20, i64 0, i64 %36
  %38 = load ptr, ptr %37, align 8, !tbaa !136
  %39 = sext i32 %34 to i64
  %40 = getelementptr inbounds [16 x ptr], ptr %20, i64 0, i64 %39
  %41 = load ptr, ptr %40, align 8, !tbaa !136
  %.not44.i = icmp eq ptr %38, %41
  br i1 %.not44.i, label %42, label %.thread48.loopexit50.i

42:                                               ; preds = %35, %30
  %indvars.iv.next.i = add nuw nsw i64 %indvars.iv.i, 1
  %exitcond.not.i = icmp eq i64 %indvars.iv.next.i, %wide.trip.count.i
  br i1 %exitcond.not.i, label %.preheader.i, label %30, !llvm.loop !206

43:                                               ; preds = %55, %.lr.ph54.i
  %indvars.iv56.i = phi i64 [ 0, %.lr.ph54.i ], [ %indvars.iv.next57.i, %55 ]
  %44 = getelementptr inbounds nuw i32, ptr %26, i64 %indvars.iv56.i
  %45 = load i32, ptr %44, align 4, !tbaa !157
  %46 = getelementptr inbounds nuw i32, ptr %28, i64 %indvars.iv56.i
  %47 = load i32, ptr %46, align 4, !tbaa !157
  %.not45.i = icmp eq i32 %45, %47
  br i1 %.not45.i, label %55, label %48

48:                                               ; preds = %43
  %49 = sext i32 %45 to i64
  %50 = getelementptr inbounds [16 x ptr], ptr %29, i64 0, i64 %49
  %51 = load ptr, ptr %50, align 8, !tbaa !136
  %52 = sext i32 %47 to i64
  %53 = getelementptr inbounds [16 x ptr], ptr %29, i64 0, i64 %52
  %54 = load ptr, ptr %53, align 8, !tbaa !136
  %.not46.i = icmp eq ptr %51, %54
  br i1 %.not46.i, label %55, label %.thread48.i

55:                                               ; preds = %48, %43
  %indvars.iv.next57.i = add nuw nsw i64 %indvars.iv56.i, 1
  %exitcond60.not.i = icmp eq i64 %indvars.iv.next57.i, %wide.trip.count59.i
  br i1 %exitcond60.not.i, label %._crit_edge.i, label %43, !llvm.loop !207

._crit_edge.i:                                    ; preds = %55, %.preheader.i
  %56 = getelementptr inbounds nuw i8, ptr %0, i64 264
  %57 = load ptr, ptr %56, align 8, !tbaa !131
  %58 = tail call zeroext i1 @ggml_gallocr_alloc_graph(ptr noundef %57, ptr noundef nonnull %21)
  br i1 %58, label %85, label %.thread48.i

.thread48.loopexit50.i:                           ; preds = %35
  %59 = getelementptr inbounds nuw i8, ptr %0, i64 344
  br label %.thread48.i

.thread48.i:                                      ; preds = %48, %.thread48.loopexit50.i, %._crit_edge.i
  %60 = phi ptr [ %59, %.thread48.loopexit50.i ], [ %21, %._crit_edge.i ], [ %21, %48 ]
  %61 = getelementptr inbounds nuw i8, ptr %0, i64 4
  %62 = load i32, ptr %61, align 4, !tbaa !115
  %63 = icmp sgt i32 %62, 0
  br i1 %63, label %.lr.ph.i.i, label %ggml_backend_sched_synchronize.exit.i

.lr.ph.i.i:                                       ; preds = %.thread48.i
  %64 = getelementptr inbounds nuw i8, ptr %0, i64 8
  br label %65

65:                                               ; preds = %ggml_backend_synchronize.exit.i.i, %.lr.ph.i.i
  %66 = phi i32 [ %62, %.lr.ph.i.i ], [ %73, %ggml_backend_synchronize.exit.i.i ]
  %indvars.iv.i.i = phi i64 [ 0, %.lr.ph.i.i ], [ %indvars.iv.next.i.i, %ggml_backend_synchronize.exit.i.i ]
  %67 = getelementptr inbounds nuw [16 x ptr], ptr %64, i64 0, i64 %indvars.iv.i.i
  %68 = load ptr, ptr %67, align 8, !tbaa !102
  %69 = getelementptr inbounds nuw i8, ptr %68, i64 48
  %70 = load ptr, ptr %69, align 8, !tbaa !66
  %71 = icmp eq ptr %70, null
  br i1 %71, label %ggml_backend_synchronize.exit.i.i, label %72

72:                                               ; preds = %65
  tail call void %70(ptr noundef nonnull %68)
  %.pre.i.i = load i32, ptr %61, align 4, !tbaa !115
  br label %ggml_backend_synchronize.exit.i.i

ggml_backend_synchronize.exit.i.i:                ; preds = %72, %65
  %73 = phi i32 [ %66, %65 ], [ %.pre.i.i, %72 ]
  %indvars.iv.next.i.i = add nuw nsw i64 %indvars.iv.i.i, 1
  %74 = sext i32 %73 to i64
  %75 = icmp slt i64 %indvars.iv.next.i.i, %74
  br i1 %75, label %65, label %ggml_backend_sched_synchronize.exit.i, !llvm.loop !149

ggml_backend_sched_synchronize.exit.i:            ; preds = %ggml_backend_synchronize.exit.i.i, %.thread48.i
  %76 = getelementptr inbounds nuw i8, ptr %0, i64 264
  %77 = load ptr, ptr %76, align 8, !tbaa !131
  %78 = getelementptr inbounds nuw i8, ptr %0, i64 312
  %79 = load ptr, ptr %78, align 8, !tbaa !123
  %80 = getelementptr inbounds nuw i8, ptr %0, i64 320
  %81 = load ptr, ptr %80, align 8, !tbaa !124
  %82 = tail call zeroext i1 @ggml_gallocr_reserve_n(ptr noundef %77, ptr noundef nonnull %60, ptr noundef %79, ptr noundef %81)
  %83 = load ptr, ptr %76, align 8, !tbaa !131
  %84 = tail call zeroext i1 @ggml_gallocr_alloc_graph(ptr noundef %83, ptr noundef nonnull %60)
  br i1 %84, label %85, label %_ZL31ggml_backend_sched_alloc_splitsP18ggml_backend_sched.exit

_ZL31ggml_backend_sched_alloc_splitsP18ggml_backend_sched.exit: ; preds = %ggml_backend_sched_synchronize.exit.i
  tail call void (i32, ptr, ...) @ggml_log_internal(i32 noundef 4, ptr noundef nonnull @.str.56, ptr noundef nonnull @__func__._ZL31ggml_backend_sched_alloc_splitsP18ggml_backend_sched)
  br label %87

85:                                               ; preds = %ggml_backend_sched_synchronize.exit.i, %._crit_edge.i
  %86 = getelementptr inbounds nuw i8, ptr %0, i64 1
  store i8 1, ptr %86, align 1, !tbaa !135
  br label %87

87:                                               ; preds = %_ZL31ggml_backend_sched_alloc_splitsP18ggml_backend_sched.exit, %85
  %.039.i9 = phi i1 [ false, %_ZL31ggml_backend_sched_alloc_splitsP18ggml_backend_sched.exit ], [ true, %85 ]
  ret i1 %.039.i9
}